target datalayout = "e-m:e-p270:32:32-p271:32:32-p272:64:64-i64:64-i128:128-f80:128-n8:16:32:64-S128"
target triple = "x86_64-pc-linux-gnu"

%struct.stat = type { i64, i64, i64, i32, i32, i32, i32, i64, i64, i64, i64, %struct.timespec, %struct.timespec, %struct.timespec, [3 x i64] }
%struct.timespec = type { i64, i64 }

@.str.36 = private unnamed_addr constant [2 x i8] c"r\00", align 1
@.str.37 = private unnamed_addr constant [25 x i8] c"Cannot open file %s: %s\0A\00", align 1
@.str.38 = private unnamed_addr constant [22 x i8] c"Cannot stat file: %s\0A\00", align 1
@.str.40 = private unnamed_addr constant [22 x i8] c"Cannot read file: %s\0A\00", align 1
@.str.41 = private unnamed_addr constant [5 x i8] c"file\00", align 1

; Function Attrs: nounwind uwtable
define dso_local i32 @fileIsManifest(ptr noundef %0) #0 {
  %2 = alloca i32, align 4
  %3 = alloca ptr, align 8
  %4 = alloca i32, align 4
  %5 = alloca ptr, align 8
  %6 = alloca %struct.stat, align 8
  %7 = alloca i64, align 8
  %8 = alloca i32, align 4
  %9 = alloca [1025 x i8], align 16
  store ptr %0, ptr %3, align 8, !tbaa !5
  call void @llvm.lifetime.start.p0(i64 4, ptr %4) #10
  store i32 0, ptr %4, align 4, !tbaa !23
  call void @llvm.lifetime.start.p0(i64 8, ptr %5) #10
  %10 = load ptr, ptr %3, align 8, !tbaa !5
  %11 = call noalias ptr @fopen64(ptr noundef %10, ptr noundef @.str.36)
  store ptr %11, ptr %5, align 8, !tbaa !15
  %12 = load ptr, ptr %5, align 8, !tbaa !15
  %13 = icmp eq ptr %12, null
  br i1 %13, label %14, label %20

14:                                               ; preds = %1
  %15 = load ptr, ptr %3, align 8, !tbaa !5
  %16 = call ptr @__errno_location() #13
  %17 = load i32, ptr %16, align 4, !tbaa !23
  %18 = call ptr @strerror(i32 noundef %17) #10
  %19 = call i32 (ptr, ...) @printf(ptr noundef @.str.37, ptr noundef %15, ptr noundef %18)
  call void @exit(i32 noundef 1) #12
  unreachable

20:                                               ; preds = %1
  call void @llvm.lifetime.start.p0(i64 144, ptr %6) #10
  %21 = load ptr, ptr %5, align 8, !tbaa !15
  %22 = call i32 @fileno(ptr noundef %21) #10
  %23 = call i32 @fstat64(i32 noundef %22, ptr noundef %6) #10
  %24 = icmp eq i32 %23, -1
  br i1 %24, label %25, label %30

25:                                               ; preds = %20
  %26 = load ptr, ptr %3, align 8, !tbaa !5
  %27 = call i32 (ptr, ...) @printf(ptr noundef @.str.38, ptr noundef %26)
  %28 = load ptr, ptr %5, align 8, !tbaa !15
  %29 = call i32 @fclose(ptr noundef %28)
  call void @exit(i32 noundef 1) #12
  unreachable

30:                                               ; preds = %20
  call void @llvm.lifetime.start.p0(i64 8, ptr %7) #10
  %31 = getelementptr inbounds nuw %struct.stat, ptr %6, i32 0, i32 8
  %32 = load i64, ptr %31, align 8, !tbaa !27
  store i64 %32, ptr %7, align 8, !tbaa !11
  %33 = load i64, ptr %7, align 8, !tbaa !11
  %34 = icmp eq i64 %33, 0
  br i1 %34, label %35, label %38

35:                                               ; preds = %30
  %36 = load ptr, ptr %5, align 8, !tbaa !15
  %37 = call i32 @fclose(ptr noundef %36)
  store i32 0, ptr %2, align 4
  store i32 1, ptr %8, align 4
  br label %73

38:                                               ; preds = %30
  call void @llvm.lifetime.start.p0(i64 1025, ptr %9) #10
  br label %39

39:                                               ; preds = %68, %60, %38
  br label %40

40:                                               ; preds = %39
  %41 = getelementptr inbounds [1025 x i8], ptr %9, i64 0, i64 0
  %42 = load ptr, ptr %5, align 8, !tbaa !15
  %43 = call ptr @fgets(ptr noundef %41, i32 noundef 1025, ptr noundef %42)
  %44 = icmp eq ptr %43, null
  br i1 %44, label %45, label %55

45:                                               ; preds = %40
  %46 = load ptr, ptr %5, align 8, !tbaa !15
  %47 = call i32 @feof(ptr noundef %46) #10
  %48 = icmp ne i32 %47, 0
  br i1 %48, label %49, label %50

49:                                               ; preds = %45
  br label %69

50:                                               ; preds = %45
  %51 = load ptr, ptr %3, align 8, !tbaa !5
  %52 = call i32 (ptr, ...) @printf(ptr noundef @.str.40, ptr noundef %51)
  %53 = load ptr, ptr %5, align 8, !tbaa !15
  %54 = call i32 @fclose(ptr noundef %53)
  call void @exit(i32 noundef 1) #12
  unreachable

55:                                               ; preds = %40
  %56 = getelementptr inbounds [1025 x i8], ptr %9, i64 0, i64 0
  %57 = load i8, ptr %56, align 16, !tbaa !10
  %58 = sext i8 %57 to i32
  %59 = icmp eq i32 %58, 35
  br i1 %59, label %60, label %61

60:                                               ; preds = %55
  br label %39

61:                                               ; preds = %55
  %62 = getelementptr inbounds [1025 x i8], ptr %9, i64 0, i64 0
  %63 = call i32 @memcmp(ptr noundef %62, ptr noundef @.str.41, i64 noundef 4) #9
  %64 = icmp ne i32 %63, 0
  br i1 %64, label %66, label %65

65:                                               ; preds = %61
  store i32 1, ptr %4, align 4, !tbaa !23
  br label %67

66:                                               ; preds = %61
  br label %69

67:                                               ; preds = %65
  br label %68

68:                                               ; preds = %67
  br label %39

69:                                               ; preds = %66, %49
  %70 = load ptr, ptr %5, align 8, !tbaa !15
  %71 = call i32 @fclose(ptr noundef %70)
  %72 = load i32, ptr %4, align 4, !tbaa !23
  store i32 %72, ptr %2, align 4
  store i32 1, ptr %8, align 4
  call void @llvm.lifetime.end.p0(i64 1025, ptr %9) #10
  br label %73

73:                                               ; preds = %69, %35
  call void @llvm.lifetime.end.p0(i64 8, ptr %7) #10
  call void @llvm.lifetime.end.p0(i64 144, ptr %6) #10
  call void @llvm.lifetime.end.p0(i64 8, ptr %5) #10
  call void @llvm.lifetime.end.p0(i64 4, ptr %4) #10
  %74 = load i32, ptr %2, align 4
  ret i32 %74
}