; Function Attrs: nounwind uwtable
define dso_local range(i32 0, 2) i32 @fileIsManifest(ptr noundef %0) local_unnamed_addr #4 {
  %2 = alloca %struct.stat, align 8
  %3 = alloca [1025 x i8], align 16
  %4 = tail call noalias ptr @fopen64(ptr noundef %0, ptr noundef nonnull @.str.36)
  %5 = icmp eq ptr %4, null
  br i1 %5, label %6, label %11

6:                                                ; preds = %1
  %7 = tail call ptr @__errno_location() #20
  %8 = load i32, ptr %7, align 4, !tbaa !15
  %9 = tail call ptr @strerror(i32 noundef %8) #16
  %10 = tail call i32 (ptr, ...) @printf(ptr noundef nonnull dereferenceable(1) @.str.37, ptr noundef %0, ptr noundef %9)
  tail call void @exit(i32 noundef 1) #19
  unreachable

11:                                               ; preds = %1
  call void @llvm.lifetime.start.p0(i64 144, ptr nonnull %2) #16
  %12 = tail call i32 @fileno(ptr noundef nonnull %4) #16
  %13 = call i32 @fstat64(i32 noundef %12, ptr noundef nonnull %2) #16
  %14 = icmp eq i32 %13, -1
  br i1 %14, label %15, label %18

15:                                               ; preds = %11
  %16 = tail call i32 (ptr, ...) @printf(ptr noundef nonnull dereferenceable(1) @.str.38, ptr noundef %0)
  %17 = tail call i32 @fclose(ptr noundef nonnull %4)
  tail call void @exit(i32 noundef 1) #19
  unreachable

18:                                               ; preds = %11
  %19 = getelementptr inbounds nuw i8, ptr %2, i64 48
  %20 = load i64, ptr %19, align 8, !tbaa !19
  %21 = icmp eq i64 %20, 0
  br i1 %21, label %22, label %24

22:                                               ; preds = %18
  %23 = tail call i32 @fclose(ptr noundef nonnull %4)
  br label %38

24:                                               ; preds = %18
  call void @llvm.lifetime.start.p0(i64 1025, ptr nonnull %3) #16
  br label %.outer

.outer:                                           ; preds = %36, %24
  %.014.ph = phi i32 [ 1, %36 ], [ 0, %24 ]
  br label %25

25:                                               ; preds = %.outer, %33
  %26 = call ptr @fgets(ptr noundef nonnull %3, i32 noundef 1025, ptr noundef nonnull %4)
  %27 = icmp eq ptr %26, null
  br i1 %27, label %28, label %33

28:                                               ; preds = %25
  %29 = call i32 @feof(ptr noundef nonnull %4) #16
  %.not16 = icmp eq i32 %29, 0
  br i1 %.not16, label %30, label %.loopexit

30:                                               ; preds = %28
  %31 = call i32 (ptr, ...) @printf(ptr noundef nonnull dereferenceable(1) @.str.40, ptr noundef %0)
  %32 = call i32 @fclose(ptr noundef nonnull %4)
  call void @exit(i32 noundef 1) #19
  unreachable

33:                                               ; preds = %25
  %34 = load i8, ptr %3, align 16, !tbaa !5
  %35 = icmp eq i8 %34, 35
  br i1 %35, label %25, label %36

36:                                               ; preds = %33
  %lhsv = load i32, ptr %3, align 16
  %.not = icmp eq i32 %lhsv, 1701603686
  br i1 %.not, label %.outer, label %.loopexit

.loopexit:                                        ; preds = %36, %28
  %37 = call i32 @fclose(ptr noundef nonnull %4)
  call void @llvm.lifetime.end.p0(i64 1025, ptr nonnull %3) #16
  br label %38

38:                                               ; preds = %.loopexit, %22
  %.0 = phi i32 [ 0, %22 ], [ %.014.ph, %.loopexit ]
  call void @llvm.lifetime.end.p0(i64 144, ptr nonnull %2) #16
  ret i32 %.0
}